target datalayout = "e-m:e-p270:32:32-p271:32:32-p272:64:64-i64:64-i128:128-f80:128-n8:16:32:64-S128"
target triple = "x86_64-unknown-linux-gnu"

%struct.SCSISense = type { i8, i8, i8 }
%struct.SCSIDiskState = type { %struct.SCSIDevice, i32, i8, i8, i8, i16, i64, i64, i32, ptr, ptr, ptr, ptr, ptr, ptr, i8, i8, i16 }
%struct.SCSIDevice = type { %struct.DeviceState, ptr, ptr, i32, %struct.BlockConf, %struct.SCSISense, i8, [252 x i8], i32, %union.anon, i32, i32, i32, i32, i64, i64, i64, i32, i32, i32, i8, i8 }
%struct.DeviceState = type { %struct.Object, ptr, ptr, i8, i8, i64, ptr, i32, i8, ptr, %struct.NamedGPIOListHead, %struct.NamedClockListHead, %struct.BusStateHead, i32, i32, i32, %struct.ResettableState, ptr, %struct.MemReentrancyGuard }
%struct.Object = type { ptr, ptr, ptr, i32, ptr }
%struct.NamedGPIOListHead = type { ptr }
%struct.NamedClockListHead = type { ptr }
%struct.BusStateHead = type { ptr }
%struct.ResettableState = type { i32, i8, i8 }
%struct.MemReentrancyGuard = type { i8 }
%struct.BlockConf = type { ptr, i32, i32, i32, i32, i32, i32, i32, i32, i32, i32, i32, i32, i32, i32, i8, i32, i32, i32, i32 }
%union.anon = type { %struct.QTailQLink }
%struct.QTailQLink = type { ptr, ptr }

; Function Attrs: nounwind sspstrong uwtable
define internal void @stw_he_p(ptr noundef %ptr, i16 noundef zeroext %v) #0 {
entry:
  %ptr.addr = alloca ptr, align 8
  %v.addr = alloca i16, align 2
  store ptr %ptr, ptr %ptr.addr, align 8
  store i16 %v, ptr %v.addr, align 2
  %0 = load ptr, ptr %ptr.addr, align 8
  call void @llvm.memcpy.p0.p0.i64(ptr align 1 %0, ptr align 2 %v.addr, i64 2, i1 false)
  ret void
}

; Function Attrs: nounwind sspstrong uwtable
define internal void @stl_he_p(ptr noundef %ptr, i32 noundef %v) #0 {
entry:
  %ptr.addr = alloca ptr, align 8
  %v.addr = alloca i32, align 4
  store ptr %ptr, ptr %ptr.addr, align 8
  store i32 %v, ptr %v.addr, align 4
  %0 = load ptr, ptr %ptr.addr, align 8
  call void @llvm.memcpy.p0.p0.i64(ptr align 1 %0, ptr align 4 %v.addr, i64 4, i1 false)
  ret void
}

; Function Attrs: nounwind sspstrong uwtable
define internal void @stw_be_p(ptr noundef %ptr, i16 noundef zeroext %v) #0 {
entry:
  %ptr.addr = alloca ptr, align 8
  %v.addr = alloca i16, align 2
  store ptr %ptr, ptr %ptr.addr, align 8
  store i16 %v, ptr %v.addr, align 2
  %0 = load ptr, ptr %ptr.addr, align 8
  %1 = load i16, ptr %v.addr, align 2
  %2 = call i16 @llvm.bswap.i16(i16 %1)
  call void @stw_he_p(ptr noundef %0, i16 noundef zeroext %2)
  ret void
}

; Function Attrs: nounwind sspstrong uwtable
define internal void @stl_be_p(ptr noundef %ptr, i32 noundef %v) #0 {
entry:
  %ptr.addr = alloca ptr, align 8
  %v.addr = alloca i32, align 4
  store ptr %ptr, ptr %ptr.addr, align 8
  store i32 %v, ptr %v.addr, align 4
  %0 = load ptr, ptr %ptr.addr, align 8
  %1 = load i32, ptr %v.addr, align 4
  %2 = call i32 @llvm.bswap.i32(i32 %1)
  call void @stl_he_p(ptr noundef %0, i32 noundef %2)
  ret void
}

; Function Attrs: nounwind sspstrong uwtable
define internal zeroext i1 @media_is_cd(ptr noundef %s) #0 {
entry:
  %retval = alloca i1, align 1
  %s.addr = alloca ptr, align 8
  %nb_sectors = alloca i64, align 8
  store ptr %s, ptr %s.addr, align 8
  %0 = load ptr, ptr %s.addr, align 8
  %qdev = getelementptr inbounds %struct.SCSIDiskState, ptr %0, i32 0, i32 0
  %type = getelementptr inbounds %struct.SCSIDevice, ptr %qdev, i32 0, i32 13
  %1 = load i32, ptr %type, align 4
  %cmp = icmp ne i32 %1, 5
  br i1 %cmp, label %if.then, label %if.end

if.then:                                          ; preds = %entry
  store i1 false, ptr %retval, align 1
  br label %return

if.end:                                           ; preds = %entry
  %2 = load ptr, ptr %s.addr, align 8
  %qdev1 = getelementptr inbounds %struct.SCSIDiskState, ptr %2, i32 0, i32 0
  %conf = getelementptr inbounds %struct.SCSIDevice, ptr %qdev1, i32 0, i32 4
  %blk = getelementptr inbounds %struct.BlockConf, ptr %conf, i32 0, i32 0
  %3 = load ptr, ptr %blk, align 8
  %call = call zeroext i1 @blk_is_available(ptr noundef %3)
  br i1 %call, label %if.end3, label %if.then2

if.then2:                                         ; preds = %if.end
  store i1 false, ptr %retval, align 1
  br label %return

if.end3:                                          ; preds = %if.end
  %4 = load ptr, ptr %s.addr, align 8
  %qdev4 = getelementptr inbounds %struct.SCSIDiskState, ptr %4, i32 0, i32 0
  %conf5 = getelementptr inbounds %struct.SCSIDevice, ptr %qdev4, i32 0, i32 4
  %blk6 = getelementptr inbounds %struct.BlockConf, ptr %conf5, i32 0, i32 0
  %5 = load ptr, ptr %blk6, align 8
  call void @blk_get_geometry(ptr noundef %5, ptr noundef %nb_sectors)
  %6 = load i64, ptr %nb_sectors, align 8
  %cmp7 = icmp ule i64 %6, 1440000
  store i1 %cmp7, ptr %retval, align 1
  br label %return

return:                                           ; preds = %if.end3, %if.then2, %if.then
  %7 = load i1, ptr %retval, align 1
  ret i1 %7
}

; Function Attrs: nounwind sspstrong uwtable
define internal zeroext i1 @media_is_dvd(ptr noundef %s) #0 {
entry:
  %retval = alloca i1, align 1
  %s.addr = alloca ptr, align 8
  %nb_sectors = alloca i64, align 8
  store ptr %s, ptr %s.addr, align 8
  %0 = load ptr, ptr %s.addr, align 8
  %qdev = getelementptr inbounds %struct.SCSIDiskState, ptr %0, i32 0, i32 0
  %type = getelementptr inbounds %struct.SCSIDevice, ptr %qdev, i32 0, i32 13
  %1 = load i32, ptr %type, align 4
  %cmp = icmp ne i32 %1, 5
  br i1 %cmp, label %if.then, label %if.end

if.then:                                          ; preds = %entry
  store i1 false, ptr %retval, align 1
  br label %return

if.end:                                           ; preds = %entry
  %2 = load ptr, ptr %s.addr, align 8
  %qdev1 = getelementptr inbounds %struct.SCSIDiskState, ptr %2, i32 0, i32 0
  %conf = getelementptr inbounds %struct.SCSIDevice, ptr %qdev1, i32 0, i32 4
  %blk = getelementptr inbounds %struct.BlockConf, ptr %conf, i32 0, i32 0
  %3 = load ptr, ptr %blk, align 8
  %call = call zeroext i1 @blk_is_available(ptr noundef %3)
  br i1 %call, label %if.end3, label %if.then2

if.then2:                                         ; preds = %if.end
  store i1 false, ptr %retval, align 1
  br label %return

if.end3:                                          ; preds = %if.end
  %4 = load ptr, ptr %s.addr, align 8
  %qdev4 = getelementptr inbounds %struct.SCSIDiskState, ptr %4, i32 0, i32 0
  %conf5 = getelementptr inbounds %struct.SCSIDevice, ptr %qdev4, i32 0, i32 4
  %blk6 = getelementptr inbounds %struct.BlockConf, ptr %conf5, i32 0, i32 0
  %5 = load ptr, ptr %blk6, align 8
  call void @blk_get_geometry(ptr noundef %5, ptr noundef %nb_sectors)
  %6 = load i64, ptr %nb_sectors, align 8
  %cmp7 = icmp ugt i64 %6, 1440000
  store i1 %cmp7, ptr %retval, align 1
  br label %return

return:                                           ; preds = %if.end3, %if.then2, %if.then
  %7 = load i1, ptr %retval, align 1
  ret i1 %7
}

; Function Attrs: nounwind sspstrong uwtable
define internal i32 @scsi_get_configuration(ptr noundef %s, ptr noundef %outbuf) #0 {
entry:
  %retval = alloca i32, align 4
  %s.addr = alloca ptr, align 8
  %outbuf.addr = alloca ptr, align 8
  %current = alloca i32, align 4
  store ptr %s, ptr %s.addr, align 8
  store ptr %outbuf, ptr %outbuf.addr, align 8
  %0 = load ptr, ptr %s.addr, align 8
  %qdev = getelementptr inbounds %struct.SCSIDiskState, ptr %0, i32 0, i32 0
  %type = getelementptr inbounds %struct.SCSIDevice, ptr %qdev, i32 0, i32 13
  %1 = load i32, ptr %type, align 4
  %cmp = icmp ne i32 %1, 5
  br i1 %cmp, label %if.then, label %if.end

if.then:                                          ; preds = %entry
  store i32 -1, ptr %retval, align 4
  br label %return

if.end:                                           ; preds = %entry
  %2 = load ptr, ptr %s.addr, align 8
  %call = call zeroext i1 @media_is_dvd(ptr noundef %2)
  br i1 %call, label %if.then1, label %if.else

if.then1:                                         ; preds = %if.end
  store i32 16, ptr %current, align 4
  br label %if.end6

if.else:                                          ; preds = %if.end
  %3 = load ptr, ptr %s.addr, align 8
  %call2 = call zeroext i1 @media_is_cd(ptr noundef %3)
  br i1 %call2, label %if.then3, label %if.else4

if.then3:                                         ; preds = %if.else
  store i32 8, ptr %current, align 4
  br label %if.end5

if.else4:                                         ; preds = %if.else
  store i32 0, ptr %current, align 4
  br label %if.end5

if.end5:                                          ; preds = %if.else4, %if.then3
  br label %if.end6

if.end6:                                          ; preds = %if.end5, %if.then1
  %4 = load ptr, ptr %outbuf.addr, align 8
  call void @llvm.memset.p0.i64(ptr align 1 %4, i8 0, i64 40, i1 false)
  %5 = load ptr, ptr %outbuf.addr, align 8
  %arrayidx = getelementptr i8, ptr %5, i64 0
  call void @stl_be_p(ptr noundef %arrayidx, i32 noundef 36)
  %6 = load ptr, ptr %outbuf.addr, align 8
  %arrayidx7 = getelementptr i8, ptr %6, i64 6
  %7 = load i32, ptr %current, align 4
  %conv = trunc i32 %7 to i16
  call void @stw_be_p(ptr noundef %arrayidx7, i16 noundef zeroext %conv)
  %8 = load ptr, ptr %outbuf.addr, align 8
  %arrayidx8 = getelementptr i8, ptr %8, i64 10
  store i8 3, ptr %arrayidx8, align 1
  %9 = load ptr, ptr %outbuf.addr, align 8
  %arrayidx9 = getelementptr i8, ptr %9, i64 11
  store i8 8, ptr %arrayidx9, align 1
  %10 = load ptr, ptr %outbuf.addr, align 8
  %arrayidx10 = getelementptr i8, ptr %10, i64 12
  call void @stw_be_p(ptr noundef %arrayidx10, i16 noundef zeroext 16)
  %11 = load i32, ptr %current, align 4
  %cmp11 = icmp eq i32 %11, 16
  %conv12 = zext i1 %cmp11 to i32
  %conv13 = trunc i32 %conv12 to i8
  %12 = load ptr, ptr %outbuf.addr, align 8
  %arrayidx14 = getelementptr i8, ptr %12, i64 14
  store i8 %conv13, ptr %arrayidx14, align 1
  %13 = load ptr, ptr %outbuf.addr, align 8
  %arrayidx15 = getelementptr i8, ptr %13, i64 16
  call void @stw_be_p(ptr noundef %arrayidx15, i16 noundef zeroext 8)
  %14 = load i32, ptr %current, align 4
  %cmp16 = icmp eq i32 %14, 8
  %conv17 = zext i1 %cmp16 to i32
  %conv18 = trunc i32 %conv17 to i8
  %15 = load ptr, ptr %outbuf.addr, align 8
  %arrayidx19 = getelementptr i8, ptr %15, i64 18
  store i8 %conv18, ptr %arrayidx19, align 1
  %16 = load ptr, ptr %outbuf.addr, align 8
  %arrayidx20 = getelementptr i8, ptr %16, i64 20
  call void @stw_be_p(ptr noundef %arrayidx20, i16 noundef zeroext 1)
  %17 = load ptr, ptr %outbuf.addr, align 8
  %arrayidx21 = getelementptr i8, ptr %17, i64 22
  store i8 11, ptr %arrayidx21, align 1
  %18 = load ptr, ptr %outbuf.addr, align 8
  %arrayidx22 = getelementptr i8, ptr %18, i64 23
  store i8 8, ptr %arrayidx22, align 1
  %19 = load ptr, ptr %outbuf.addr, align 8
  %arrayidx23 = getelementptr i8, ptr %19, i64 24
  call void @stl_be_p(ptr noundef %arrayidx23, i32 noundef 1)
  %20 = load ptr, ptr %outbuf.addr, align 8
  %arrayidx24 = getelementptr i8, ptr %20, i64 28
  store i8 1, ptr %arrayidx24, align 1
  %21 = load ptr, ptr %outbuf.addr, align 8
  %arrayidx25 = getelementptr i8, ptr %21, i64 32
  call void @stw_be_p(ptr noundef %arrayidx25, i16 noundef zeroext 3)
  %22 = load ptr, ptr %outbuf.addr, align 8
  %arrayidx26 = getelementptr i8, ptr %22, i64 34
  store i8 11, ptr %arrayidx26, align 1
  %23 = load ptr, ptr %outbuf.addr, align 8
  %arrayidx27 = getelementptr i8, ptr %23, i64 35
  store i8 4, ptr %arrayidx27, align 1
  %24 = load ptr, ptr %outbuf.addr, align 8
  %arrayidx28 = getelementptr i8, ptr %24, i64 36
  store i8 57, ptr %arrayidx28, align 1
  store i32 40, ptr %retval, align 4
  br label %return

return:                                           ; preds = %if.end6, %if.then
  %25 = load i32, ptr %retval, align 4
  ret i32 %25
}