; Function Attrs: nounwind sspstrong uwtable
define internal fastcc range(i32 -1, 41) i32 @scsi_get_configuration(ptr noundef readonly captures(none) %s, ptr noundef writeonly captures(none) %outbuf) unnamed_addr #0 {
entry:
  %nb_sectors.i23 = alloca i64, align 8
  %nb_sectors.i = alloca i64, align 8
  %type = getelementptr inbounds nuw i8, ptr %s, i64 564
  %0 = load i32, ptr %type, align 4
  %cmp.not = icmp eq i32 %0, 5
  br i1 %cmp.not, label %if.end.i, label %return

if.end.i:                                         ; preds = %entry
  call void @llvm.lifetime.start.p0(i64 8, ptr nonnull %nb_sectors.i)
  %conf.i = getelementptr inbounds nuw i8, ptr %s, i64 184
  %1 = load ptr, ptr %conf.i, align 8
  %call.i = tail call zeroext i1 @blk_is_available(ptr noundef %1) #18
  br i1 %call.i, label %media_is_dvd.exit, label %media_is_dvd.exit.thread

media_is_dvd.exit.thread:                         ; preds = %if.end.i
  call void @llvm.lifetime.end.p0(i64 8, ptr nonnull %nb_sectors.i)
  br label %if.else

media_is_dvd.exit:                                ; preds = %if.end.i
  %2 = load ptr, ptr %conf.i, align 8
  call void @blk_get_geometry(ptr noundef %2, ptr noundef nonnull %nb_sectors.i) #18
  %3 = load i64, ptr %nb_sectors.i, align 8
  %cmp7.i = icmp ugt i64 %3, 1440000
  call void @llvm.lifetime.end.p0(i64 8, ptr nonnull %nb_sectors.i)
  br i1 %cmp7.i, label %if.end6, label %if.else

if.else:                                          ; preds = %media_is_dvd.exit.thread, %media_is_dvd.exit
  call void @llvm.lifetime.start.p0(i64 8, ptr nonnull %nb_sectors.i23)
  %4 = load i32, ptr %type, align 4
  %cmp.not.i25 = icmp eq i32 %4, 5
  br i1 %cmp.not.i25, label %if.end.i27, label %.thread

if.end.i27:                                       ; preds = %if.else
  %5 = load ptr, ptr %conf.i, align 8
  %call.i29 = call zeroext i1 @blk_is_available(ptr noundef %5) #18
  br i1 %call.i29, label %media_is_cd.exit, label %.thread

.thread:                                          ; preds = %if.end.i27, %if.else
  call void @llvm.lifetime.end.p0(i64 8, ptr nonnull %nb_sectors.i23)
  br label %if.end6

media_is_cd.exit:                                 ; preds = %if.end.i27
  %6 = load ptr, ptr %conf.i, align 8
  call void @blk_get_geometry(ptr noundef %6, ptr noundef nonnull %nb_sectors.i23) #18
  %7 = load i64, ptr %nb_sectors.i23, align 8
  %.fr = freeze i64 %7
  %cmp7.i31 = icmp ult i64 %.fr, 1440001
  call void @llvm.lifetime.end.p0(i64 8, ptr nonnull %nb_sectors.i23)
  %spec.select = zext i1 %cmp7.i31 to i8
  %spec.select42 = select i1 %cmp7.i31, i16 2048, i16 0
  br label %if.end6

if.end6:                                          ; preds = %media_is_cd.exit, %.thread, %media_is_dvd.exit
  %retval.0.i34 = phi i8 [ 1, %media_is_dvd.exit ], [ 0, %.thread ], [ 0, %media_is_cd.exit ]
  %cmp16 = phi i8 [ 0, %media_is_dvd.exit ], [ 0, %.thread ], [ %spec.select, %media_is_cd.exit ]
  %current.0 = phi i16 [ 4096, %media_is_dvd.exit ], [ 0, %.thread ], [ %spec.select42, %media_is_cd.exit ]
  %8 = getelementptr inbounds nuw i8, ptr %outbuf, i64 4
  call void @llvm.memset.p0.i64(ptr noundef nonnull align 1 dereferenceable(40) %8, i8 0, i64 36, i1 false)
  store i32 603979776, ptr %outbuf, align 1
  %arrayidx7 = getelementptr i8, ptr %outbuf, i64 6
  store i16 %current.0, ptr %arrayidx7, align 1
  %arrayidx8 = getelementptr i8, ptr %outbuf, i64 10
  store i8 3, ptr %arrayidx8, align 1
  %arrayidx9 = getelementptr i8, ptr %outbuf, i64 11
  store i8 8, ptr %arrayidx9, align 1
  %arrayidx10 = getelementptr i8, ptr %outbuf, i64 12
  store i16 4096, ptr %arrayidx10, align 1
  %arrayidx14 = getelementptr i8, ptr %outbuf, i64 14
  store i8 %retval.0.i34, ptr %arrayidx14, align 1
  %arrayidx15 = getelementptr i8, ptr %outbuf, i64 16
  store i16 2048, ptr %arrayidx15, align 1
  %arrayidx19 = getelementptr i8, ptr %outbuf, i64 18
  store i8 %cmp16, ptr %arrayidx19, align 1
  %arrayidx20 = getelementptr i8, ptr %outbuf, i64 20
  store i16 256, ptr %arrayidx20, align 1
  %arrayidx21 = getelementptr i8, ptr %outbuf, i64 22
  store i8 11, ptr %arrayidx21, align 1
  %arrayidx22 = getelementptr i8, ptr %outbuf, i64 23
  store i8 8, ptr %arrayidx22, align 1
  %arrayidx23 = getelementptr i8, ptr %outbuf, i64 24
  store i32 16777216, ptr %arrayidx23, align 1
  %arrayidx24 = getelementptr i8, ptr %outbuf, i64 28
  store i8 1, ptr %arrayidx24, align 1
  %arrayidx25 = getelementptr i8, ptr %outbuf, i64 32
  store i16 768, ptr %arrayidx25, align 1
  %arrayidx26 = getelementptr i8, ptr %outbuf, i64 34
  store i8 11, ptr %arrayidx26, align 1
  %arrayidx27 = getelementptr i8, ptr %outbuf, i64 35
  store i8 4, ptr %arrayidx27, align 1
  %arrayidx28 = getelementptr i8, ptr %outbuf, i64 36
  store i8 57, ptr %arrayidx28, align 1
  br label %return

return:                                           ; preds = %entry, %if.end6
  %retval.0 = phi i32 [ 40, %if.end6 ], [ -1, %entry ]
  ret i32 %retval.0
}